; Function Attrs: mustprogress uwtable
define void @_ZNK5osgeo4proj3crs3CRS20extractGeographicCRSEv(ptr dead_on_unwind noalias nocapture writable writeonly sret(%"class.std::shared_ptr.277") align 8 %0, ptr noundef nonnull align 8 dereferenceable(64) %1) local_unnamed_addr #6 align 2 personality ptr @__gxx_personality_v0 {
  %3 = alloca %"struct.osgeo::proj::util::BaseObjectNNPtr", align 8
  %4 = tail call noundef ptr @_ZNK5osgeo4proj3crs3CRS21extractGeodeticCRSRawEv(ptr noundef nonnull align 8 dereferenceable(64) %1)
  %.not = icmp eq ptr %4, null
  br i1 %.not, label %26, label %5

5:                                                ; preds = %2
  %6 = load ptr, ptr %4, align 8
  %7 = getelementptr i8, ptr %6, i64 -24
  %8 = load i64, ptr %7, align 8
  %9 = getelementptr inbounds i8, ptr %4, i64 %8
  call void @_ZNK5osgeo4proj4util10BaseObject16shared_from_thisEv(ptr dead_on_unwind nonnull writable sret(%"struct.osgeo::proj::util::BaseObjectNNPtr") align 8 %3, ptr noundef nonnull align 8 dereferenceable(16) %9)
  call void @llvm.experimental.noalias.scope.decl(metadata !173)
  %10 = load ptr, ptr %3, align 8, !noalias !173
  %11 = icmp eq ptr %10, null
  br i1 %11, label %.thread.i, label %12

12:                                               ; preds = %5
  %13 = call ptr @__dynamic_cast(ptr nonnull %10, ptr nonnull @_ZTIN5osgeo4proj4util10BaseObjectE, ptr nonnull @_ZTIN5osgeo4proj3crs13GeographicCRSE, i64 -1) #37, !noalias !173
  %.not.i = icmp eq ptr %13, null
  br i1 %.not.i, label %.thread.i, label %14

14:                                               ; preds = %12
  store ptr %13, ptr %0, align 8, !alias.scope !173
  %15 = getelementptr inbounds i8, ptr %0, i64 8
  %16 = getelementptr inbounds i8, ptr %3, i64 8
  %17 = load ptr, ptr %16, align 8, !noalias !173
  store ptr %17, ptr %15, align 8, !alias.scope !173
  %.not.i.i.i.i = icmp eq ptr %17, null
  br i1 %.not.i.i.i.i, label %_ZSt20dynamic_pointer_castIN5osgeo4proj3crs13GeographicCRSENS1_4util10BaseObjectEESt10shared_ptrIT_ERKS6_IT0_E.exit, label %18

18:                                               ; preds = %14
  %19 = getelementptr inbounds i8, ptr %17, i64 8
  %20 = load i8, ptr @__libc_single_threaded, align 1, !noalias !173
  %.not.i.i.i.i.i = icmp eq i8 %20, 0
  br i1 %.not.i.i.i.i.i, label %24, label %21

21:                                               ; preds = %18
  %22 = load i32, ptr %19, align 4, !noalias !173
  %23 = add nsw i32 %22, 1
  store i32 %23, ptr %19, align 4, !noalias !173
  br label %_ZSt20dynamic_pointer_castIN5osgeo4proj3crs13GeographicCRSENS1_4util10BaseObjectEESt10shared_ptrIT_ERKS6_IT0_E.exit

24:                                               ; preds = %18
  %25 = atomicrmw volatile add ptr %19, i32 1 acq_rel, align 4, !noalias !173
  br label %_ZSt20dynamic_pointer_castIN5osgeo4proj3crs13GeographicCRSENS1_4util10BaseObjectEESt10shared_ptrIT_ERKS6_IT0_E.exit

.thread.i:                                        ; preds = %12, %5
  call void @llvm.memset.p0.i64(ptr noundef nonnull align 8 dereferenceable(16) %0, i8 0, i64 16, i1 false), !alias.scope !173
  br label %_ZSt20dynamic_pointer_castIN5osgeo4proj3crs13GeographicCRSENS1_4util10BaseObjectEESt10shared_ptrIT_ERKS6_IT0_E.exit

_ZSt20dynamic_pointer_castIN5osgeo4proj3crs13GeographicCRSENS1_4util10BaseObjectEESt10shared_ptrIT_ERKS6_IT0_E.exit: ; preds = %14, %21, %24, %.thread.i
  call void @_ZN5osgeo4proj4util15BaseObjectNNPtrD1Ev(ptr noundef nonnull align 8 dereferenceable(16) %3) #37
  br label %27

26:                                               ; preds = %2
  tail call void @llvm.memset.p0.i64(ptr noundef nonnull align 8 dereferenceable(16) %0, i8 0, i64 16, i1 false)
  br label %27

27:                                               ; preds = %26, %_ZSt20dynamic_pointer_castIN5osgeo4proj3crs13GeographicCRSENS1_4util10BaseObjectEESt10shared_ptrIT_ERKS6_IT0_E.exit
  ret void
}